target datalayout = "e-m:e-p270:32:32-p271:32:32-p272:64:64-i64:64-i128:128-f80:128-n8:16:32:64-S128"
target triple = "x86_64-pc-linux-gnu"

%class.XNMethodTableEntry = type { i64 }

; Function Attrs: mustprogress nounwind uwtable
define linkonce_odr hidden noundef i32 @_ZN5XHash16uint32_to_uint32Ej(i32 noundef %0) #1 comdat align 2 {
  %2 = alloca i32, align 4
  store i32 %0, ptr %2, align 4
  %3 = load i32, ptr %2, align 4
  %4 = xor i32 %3, -1
  %5 = load i32, ptr %2, align 4
  %6 = shl i32 %5, 15
  %7 = add i32 %4, %6
  store i32 %7, ptr %2, align 4
  %8 = load i32, ptr %2, align 4
  %9 = load i32, ptr %2, align 4
  %10 = lshr i32 %9, 12
  %11 = xor i32 %8, %10
  store i32 %11, ptr %2, align 4
  %12 = load i32, ptr %2, align 4
  %13 = load i32, ptr %2, align 4
  %14 = shl i32 %13, 2
  %15 = add i32 %12, %14
  store i32 %15, ptr %2, align 4
  %16 = load i32, ptr %2, align 4
  %17 = load i32, ptr %2, align 4
  %18 = lshr i32 %17, 4
  %19 = xor i32 %16, %18
  store i32 %19, ptr %2, align 4
  %20 = load i32, ptr %2, align 4
  %21 = mul i32 %20, 2057
  store i32 %21, ptr %2, align 4
  %22 = load i32, ptr %2, align 4
  %23 = load i32, ptr %2, align 4
  %24 = lshr i32 %23, 16
  %25 = xor i32 %22, %24
  store i32 %25, ptr %2, align 4
  %26 = load i32, ptr %2, align 4
  ret i32 %26
}

; Function Attrs: mustprogress nounwind uwtable
define linkonce_odr hidden noundef i64 @_ZN9XBitFieldImP7nmethodLi2ELi62ELi2EE6encodeES1_(ptr noundef %0) #1 comdat align 2 {
  %2 = alloca ptr, align 8
  store ptr %0, ptr %2, align 8
  %3 = load ptr, ptr %2, align 8
  %4 = ptrtoint ptr %3 to i64
  %5 = lshr i64 %4, 2
  %6 = shl i64 %5, 2
  ret i64 %6
}

; Function Attrs: mustprogress nounwind uwtable
define linkonce_odr hidden noundef i64 @_ZN9XBitFieldImbLi1ELi1ELi0EE6encodeEb(i1 noundef zeroext %0) #1 comdat align 2 {
  %2 = alloca i8, align 1
  %3 = zext i1 %0 to i8
  store i8 %3, ptr %2, align 1
  %4 = load i8, ptr %2, align 1
  %5 = trunc i8 %4 to i1
  %6 = zext i1 %5 to i64
  %7 = lshr i64 %6, 0
  %8 = shl i64 %7, 1
  ret i64 %8
}

; Function Attrs: mustprogress nounwind uwtable
define linkonce_odr hidden noundef i64 @_ZN9XBitFieldImbLi0ELi1ELi0EE6encodeEb(i1 noundef zeroext %0) #1 comdat align 2 {
  %2 = alloca i8, align 1
  %3 = zext i1 %0 to i8
  store i8 %3, ptr %2, align 1
  %4 = load i8, ptr %2, align 1
  %5 = trunc i8 %4 to i1
  %6 = zext i1 %5 to i64
  %7 = lshr i64 %6, 0
  %8 = shl i64 %7, 0
  ret i64 %8
}

; Function Attrs: mustprogress nounwind uwtable
define linkonce_odr hidden noundef ptr @_ZN9XBitFieldImP7nmethodLi2ELi62ELi2EE6decodeEm(i64 noundef %0) #1 comdat align 2 {
  %2 = alloca i64, align 8
  store i64 %0, ptr %2, align 8
  %3 = load i64, ptr %2, align 8
  %4 = lshr i64 %3, 2
  %5 = and i64 %4, 4611686018427387903
  %6 = shl i64 %5, 2
  %7 = inttoptr i64 %6 to ptr
  ret ptr %7
}

; Function Attrs: mustprogress nounwind uwtable
define linkonce_odr hidden noundef zeroext i1 @_ZN9XBitFieldImbLi0ELi1ELi0EE6decodeEm(i64 noundef %0) #1 comdat align 2 {
  %2 = alloca i64, align 8
  store i64 %0, ptr %2, align 8
  %3 = load i64, ptr %2, align 8
  %4 = lshr i64 %3, 0
  %5 = and i64 %4, 1
  %6 = shl i64 %5, 0
  %7 = icmp ne i64 %6, 0
  ret i1 %7
}

; Function Attrs: mustprogress nounwind uwtable
define linkonce_odr hidden noundef i32 @_ZN5XHash17address_to_uint32Em(i64 noundef %0) #1 comdat align 2 {
  %2 = alloca i64, align 8
  store i64 %0, ptr %2, align 8
  %3 = load i64, ptr %2, align 8
  %4 = lshr i64 %3, 3
  %5 = trunc i64 %4 to i32
  %6 = call noundef i32 @_ZN5XHash16uint32_to_uint32Ej(i32 noundef %5)
  ret i32 %6
}

; Function Attrs: mustprogress nounwind uwtable
define hidden noundef i64 @_ZN13XNMethodTable10next_indexEmm(i64 noundef %0, i64 noundef %1) #1 align 2 {
  %3 = alloca i64, align 8
  %4 = alloca i64, align 8
  %5 = alloca i64, align 8
  store i64 %0, ptr %3, align 8
  store i64 %1, ptr %4, align 8
  %6 = load i64, ptr %4, align 8
  %7 = sub i64 %6, 1
  store i64 %7, ptr %5, align 8
  %8 = load i64, ptr %3, align 8
  %9 = add i64 %8, 1
  %10 = load i64, ptr %5, align 8
  %11 = and i64 %9, %10
  ret i64 %11
}

; Function Attrs: mustprogress nounwind uwtable
define linkonce_odr hidden void @_ZN18XNMethodTableEntryC2Eb(ptr noundef nonnull align 8 dereferenceable(8) %0, i1 noundef zeroext %1) unnamed_addr #1 comdat align 2 {
  %3 = alloca ptr, align 8
  %4 = alloca i8, align 1
  store ptr %0, ptr %3, align 8
  %5 = zext i1 %1 to i8
  store i8 %5, ptr %4, align 1
  %6 = load ptr, ptr %3, align 8
  %7 = getelementptr inbounds %class.XNMethodTableEntry, ptr %6, i32 0, i32 0
  %8 = call noundef i64 @_ZN9XBitFieldImbLi0ELi1ELi0EE6encodeEb(i1 noundef zeroext false)
  %9 = load i8, ptr %4, align 1
  %10 = trunc i8 %9 to i1
  %11 = call noundef i64 @_ZN9XBitFieldImbLi1ELi1ELi0EE6encodeEb(i1 noundef zeroext %10)
  %12 = or i64 %8, %11
  %13 = call noundef i64 @_ZN9XBitFieldImP7nmethodLi2ELi62ELi2EE6encodeES1_(ptr noundef null)
  %14 = or i64 %12, %13
  store i64 %14, ptr %7, align 8
  ret void
}

; Function Attrs: mustprogress nounwind uwtable
define linkonce_odr hidden noundef ptr @_ZNK18XNMethodTableEntry6methodEv(ptr noundef nonnull align 8 dereferenceable(8) %0) #1 comdat align 2 {
  %2 = alloca ptr, align 8
  store ptr %0, ptr %2, align 8
  %3 = load ptr, ptr %2, align 8
  %4 = getelementptr inbounds %class.XNMethodTableEntry, ptr %3, i32 0, i32 0
  %5 = load i64, ptr %4, align 8
  %6 = call noundef ptr @_ZN9XBitFieldImP7nmethodLi2ELi62ELi2EE6decodeEm(i64 noundef %5)
  ret ptr %6
}

; Function Attrs: mustprogress nounwind uwtable
define linkonce_odr hidden noundef zeroext i1 @_ZNK18XNMethodTableEntry10registeredEv(ptr noundef nonnull align 8 dereferenceable(8) %0) #1 comdat align 2 {
  %2 = alloca ptr, align 8
  store ptr %0, ptr %2, align 8
  %3 = load ptr, ptr %2, align 8
  %4 = getelementptr inbounds %class.XNMethodTableEntry, ptr %3, i32 0, i32 0
  %5 = load i64, ptr %4, align 8
  %6 = call noundef zeroext i1 @_ZN9XBitFieldImbLi0ELi1ELi0EE6decodeEm(i64 noundef %5)
  ret i1 %6
}

; Function Attrs: mustprogress nounwind uwtable
define hidden noundef i64 @_ZN13XNMethodTable11first_indexEPK7nmethodm(ptr noundef %0, i64 noundef %1) #1 align 2 {
  %3 = alloca ptr, align 8
  %4 = alloca i64, align 8
  %5 = alloca i64, align 8
  %6 = alloca i64, align 8
  store ptr %0, ptr %3, align 8
  store i64 %1, ptr %4, align 8
  %7 = load i64, ptr %4, align 8
  %8 = sub i64 %7, 1
  store i64 %8, ptr %5, align 8
  %9 = load ptr, ptr %3, align 8
  %10 = ptrtoint ptr %9 to i64
  %11 = call noundef i32 @_ZN5XHash17address_to_uint32Em(i64 noundef %10)
  %12 = zext i32 %11 to i64
  store i64 %12, ptr %6, align 8
  %13 = load i64, ptr %6, align 8
  %14 = load i64, ptr %5, align 8
  %15 = and i64 %13, %14
  ret i64 %15
}

; Function Attrs: mustprogress nounwind uwtable
define hidden void @_ZN13XNMethodTable16unregister_entryEP18XNMethodTableEntrymP7nmethod(ptr noundef %0, i64 noundef %1, ptr noundef %2) #1 align 2 {
  %4 = alloca ptr, align 8
  %5 = alloca i64, align 8
  %6 = alloca ptr, align 8
  %7 = alloca i64, align 8
  %8 = alloca %class.XNMethodTableEntry, align 8
  %9 = alloca %class.XNMethodTableEntry, align 8
  store ptr %0, ptr %4, align 8
  store i64 %1, ptr %5, align 8
  store ptr %2, ptr %6, align 8
  %10 = load ptr, ptr %6, align 8
  %11 = load i64, ptr %5, align 8
  %12 = call noundef i64 @_ZN13XNMethodTable11first_indexEPK7nmethodm(ptr noundef %10, i64 noundef %11)
  store i64 %12, ptr %7, align 8
  br label %13

13:                                               ; preds = %26, %3
  %14 = load ptr, ptr %4, align 8
  %15 = load i64, ptr %7, align 8
  %16 = getelementptr inbounds %class.XNMethodTableEntry, ptr %14, i64 %15
  call void @llvm.memcpy.p0.p0.i64(ptr align 8 %8, ptr align 8 %16, i64 8, i1 false)
  %17 = call noundef zeroext i1 @_ZNK18XNMethodTableEntry10registeredEv(ptr noundef nonnull align 8 dereferenceable(8) %8)
  br i1 %17, label %18, label %26

18:                                               ; preds = %13
  %19 = call noundef ptr @_ZNK18XNMethodTableEntry6methodEv(ptr noundef nonnull align 8 dereferenceable(8) %8)
  %20 = load ptr, ptr %6, align 8
  %21 = icmp eq ptr %19, %20
  br i1 %21, label %22, label %26

22:                                               ; preds = %18
  call void @_ZN18XNMethodTableEntryC2Eb(ptr noundef nonnull align 8 dereferenceable(8) %9, i1 noundef zeroext true)
  %23 = load ptr, ptr %4, align 8
  %24 = load i64, ptr %7, align 8
  %25 = getelementptr inbounds %class.XNMethodTableEntry, ptr %23, i64 %24
  call void @llvm.memcpy.p0.p0.i64(ptr align 8 %25, ptr align 8 %9, i64 8, i1 false)
  ret void

26:                                               ; preds = %18, %13
  %27 = load i64, ptr %7, align 8
  %28 = load i64, ptr %5, align 8
  %29 = call noundef i64 @_ZN13XNMethodTable10next_indexEmm(i64 noundef %27, i64 noundef %28)
  store i64 %29, ptr %7, align 8
  br label %13, !llvm.loop !8
}