; Function Attrs: mustprogress nofree norecurse nosync nounwind memory(argmem: readwrite) uwtable
define hidden void @_ZN13XNMethodTable16unregister_entryEP18XNMethodTableEntrymP7nmethod(ptr nocapture noundef %0, i64 noundef %1, ptr noundef %2) local_unnamed_addr #4 align 2 {
  %4 = add i64 %1, 4294967295
  %5 = ptrtoint ptr %2 to i64
  %6 = lshr i64 %5, 3
  %7 = trunc i64 %6 to i32
  %8 = xor i32 %7, -1
  %9 = shl i32 %7, 15
  %10 = add i32 %9, %8
  %11 = lshr i32 %10, 12
  %12 = xor i32 %11, %10
  %13 = mul i32 %12, 5
  %14 = lshr i32 %13, 4
  %15 = xor i32 %14, %13
  %16 = mul i32 %15, 2057
  %17 = lshr i32 %16, 16
  %18 = xor i32 %17, %16
  %19 = zext i32 %18 to i64
  %20 = and i64 %4, %19
  %21 = getelementptr inbounds %class.XNMethodTableEntry, ptr %0, i64 %20
  %22 = load i64, ptr %21, align 8
  %23 = and i64 %22, 1
  %24 = icmp ne i64 %23, 0
  %25 = and i64 %22, -4
  %26 = inttoptr i64 %25 to ptr
  %27 = icmp eq ptr %26, %2
  %or.cond12 = and i1 %24, %27
  br i1 %or.cond12, label %._crit_edge, label %.lr.ph

.lr.ph:                                           ; preds = %3
  %28 = add i64 %1, -1
  br label %30

._crit_edge:                                      ; preds = %30, %3
  %.0.lcssa = phi i64 [ %20, %3 ], [ %32, %30 ]
  %29 = getelementptr inbounds %class.XNMethodTableEntry, ptr %0, i64 %.0.lcssa
  store i64 2, ptr %29, align 8
  ret void

30:                                               ; preds = %.lr.ph, %30
  %.013 = phi i64 [ %20, %.lr.ph ], [ %32, %30 ]
  %31 = add i64 %.013, 1
  %32 = and i64 %31, %28
  %33 = getelementptr inbounds %class.XNMethodTableEntry, ptr %0, i64 %32
  %34 = load i64, ptr %33, align 8
  %35 = and i64 %34, 1
  %36 = icmp ne i64 %35, 0
  %37 = and i64 %34, -4
  %38 = inttoptr i64 %37 to ptr
  %39 = icmp eq ptr %38, %2
  %or.cond = and i1 %36, %39
  br i1 %or.cond, label %._crit_edge, label %30, !llvm.loop !8
}